(dp0
S'METTS MARK'
p1
(dp2
S'to_messages'
p3
F807.0
sS'deferral_payments'
p4
F0.0
sS'expenses'
p5
F94299.0
sS'poi'
p6
I00
sS'long_term_incentive'
p7
F0.0
sS'email_address'
p8
S'mark.metts@enron.com'
p9
sS'from_poi_to_this_person'
p10
F38.0
sS'deferred_income'
p11
F0.0
sS'restricted_stock_deferred'
p12
F0.0
sS'shared_receipt_with_poi'
p13
F702.0
sS'loan_advances'
p14
F0.0
sS'from_messages'
p15
F29.0
sS'other'
p16
F1740.0
sS'missingFinancial'
p17
F0.5
sS'stockTotalPaymentRatio'
p18
F0.0
sS'bonus'
p19
F600000.0
sS'total_stock_value'
p20
F585062.0
sS'from_this_person_to_poi'
p21
F1.0
sS'restricted_stock'
p22
F585062.0
sS'salary'
p23
F365788.0
sS'total_payments'
p24
F1061827.0
sS'director_fees'
p25
F0.0
sS'exercised_stock_options'
p26
F0.0
ssS'BAXTER JOHN C'
p27
(dp28
g3
Fnan
sg4
F1295738.0
sg5
F11200.0
sg6
I00
sg7
F1586055.0
sg8
Fnan
sg10
Fnan
sg11
F-1386055.0
sg12
F0.0
sg13
Fnan
sg14
F0.0
sg15
Fnan
sg16
F2660303.0
sg17
F0.21428571428571427
sg18
F0.5424770848486065
sg19
F1200000.0
sg20
F10623258.0
sg21
Fnan
sg22
F3942714.0
sg23
F267102.0
sg24
F5634343.0
sg25
F0.0
sg26
F6680544.0
ssS'ELLIOTT STEVEN'
p29
(dp30
g3
Fnan
sg4
F0.0
sg5
F78552.0
sg6
I00
sg7
F0.0
sg8
S'steven.elliott@enron.com'
p31
sg10
Fnan
sg11
F-400729.0
sg12
F0.0
sg13
Fnan
sg14
F0.0
sg15
Fnan
sg16
F12961.0
sg17
F0.35714285714285715
sg18
F0.9585021292342382
sg19
F350000.0
sg20
F6678735.0
sg21
Fnan
sg22
F1788391.0
sg23
F170941.0
sg24
F211725.0
sg25
F0.0
sg26
F4890344.0
ssS'CORDES WILLIAM R'
p32
(dp33
g3
F764.0
sg4
F0.0
sg5
F0.0
sg6
I00
sg7
F0.0
sg8
S'bill.cordes@enron.com'
p34
sg10
F10.0
sg11
F0.0
sg12
F0.0
sg13
F58.0
sg14
F0.0
sg15
F12.0
sg16
F0.0
sg17
F0.7857142857142857
sg18
F1.0
sg19
F0.0
sg20
F1038185.0
sg21
F0.0
sg22
F386335.0
sg23
F0.0
sg24
F0.0
sg25
F0.0
sg26
F651850.0
ssS'HANNON KEVIN P'
p35
(dp36
g3
F1045.0
sg4
F0.0
sg5
F34039.0
sg6
I01
sg7
F1617011.0
sg8
S'kevin.hannon@enron.com'
p37
sg10
F32.0
sg11
F-3117011.0
sg12
F0.0
sg13
F1035.0
sg14
F0.0
sg15
F32.0
sg16
F11350.0
sg17
F0.2857142857142857
sg18
F0.9504551732091826
sg19
F1500000.0
sg20
F6391065.0
sg21
F21.0
sg22
F853064.0
sg23
F243293.0
sg24
F288682.0
sg25
F0.0
sg26
F5538001.0
ssS'MORDAUNT KRISTINA M'
p38
(dp39
g3
Fnan
sg4
F0.0
sg5
F35018.0
sg6
I00
sg7
F0.0
sg8
S'kristina.mordaunt@enron.com'
p40
sg10
Fnan
sg11
F0.0
sg12
F0.0
sg13
Fnan
sg14
F0.0
sg15
Fnan
sg16
F1411.0
sg17
F0.5
sg18
F0.0
sg19
F325000.0
sg20
F208510.0
sg21
Fnan
sg22
F208510.0
sg23
F267093.0
sg24
F628522.0
sg25
F0.0
sg26
F0.0
ssS'MEYER ROCKFORD G'
p41
(dp42
g3
F232.0
sg4
F1848227.0
sg5
F0.0
sg6
I00
sg7
F0.0
sg8
S'rockford.meyer@enron.com'
p43
sg10
F0.0
sg11
F0.0
sg12
F0.0
sg13
F22.0
sg14
F0.0
sg15
F28.0
sg16
F0.0
sg17
F0.6428571428571429
sg18
F0.21073819370068786
sg19
F0.0
sg20
F955873.0
sg21
F0.0
sg22
F462384.0
sg23
F0.0
sg24
F1848227.0
sg25
F0.0
sg26
F493489.0
ssS'MCMAHON JEFFREY'
p44
(dp45
g3
F2355.0
sg4
F0.0
sg5
F137108.0
sg6
I00
sg7
F694862.0
sg8
S'jeffrey.mcmahon@enron.com'
p46
sg10
F58.0
sg11
F0.0
sg12
F0.0
sg13
F2228.0
sg14
F0.0
sg15
F48.0
sg16
F297353.0
sg17
F0.35714285714285715
sg18
F0.21216201544056534
sg19
F2600000.0
sg20
F1662855.0
sg21
F26.0
sg22
F558801.0
sg23
F370448.0
sg24
F4099771.0
sg25
F0.0
sg26
F1104054.0
ssS'HORTON STANLEY C'
p47
(dp48
g3
F2350.0
sg4
F3131860.0
sg5
F0.0
sg6
I00
sg7
F0.0
sg8
S'stanley.horton@enron.com'
p49
sg10
F44.0
sg11
F0.0
sg12
F0.0
sg13
F1074.0
sg14
F0.0
sg15
F1073.0
sg16
F0.0
sg17
F0.6428571428571429
sg18
F0.6245865562655672
sg19
F0.0
sg20
F7256648.0
sg21
F15.0
sg22
F2046079.0
sg23
F0.0
sg24
F3131860.0
sg25
F0.0
sg26
F5210569.0
ssS'PIPER GREGORY F'
p50
(dp51
g3
F1238.0
sg4
F1130036.0
sg5
F43057.0
sg6
I00
sg7
F0.0
sg8
S'greg.piper@enron.com'
p52
sg10
F61.0
sg11
F-33333.0
sg12
F-409554.0
sg13
F742.0
sg14
F0.0
sg15
F222.0
sg16
F778.0
sg17
F0.21428571428571427
sg18
F0.3362556289938688
sg19
F400000.0
sg20
F880290.0
sg21
F48.0
sg22
F409554.0
sg23
F197091.0
sg24
F1737629.0
sg25
F0.0
sg26
F880290.0
ssS'HUMPHREY GENE E'
p53
(dp54
g3
F128.0
sg4
F2964506.0
sg5
F4994.0
sg6
I00
sg7
F0.0
sg8
S'gene.humphrey@enron.com'
p55
sg10
F10.0
sg11
F0.0
sg12
F0.0
sg13
F119.0
sg14
F0.0
sg15
F17.0
sg16
F0.0
sg17
F0.5714285714285714
sg18
F0.4240704797629274
sg19
F0.0
sg20
F2282768.0
sg21
F17.0
sg22
F0.0
sg23
F130724.0
sg24
F3100224.0
sg25
F0.0
sg26
F2282768.0
ssS'UMANOFF ADAM S'
p56
(dp57
g3
F111.0
sg4
F0.0
sg5
F53122.0
sg6
I00
sg7
F0.0
sg8
S'adam.umanoff@enron.com'
p58
sg10
F12.0
sg11
F0.0
sg12
F0.0
sg13
F41.0
sg14
F0.0
sg15
F18.0
sg16
F0.0
sg17
F0.7142857142857143
sg18
F0.0
sg19
F788750.0
sg20
F0.0
sg21
F0.0
sg22
F0.0
sg23
F288589.0
sg24
F1130461.0
sg25
F0.0
sg26
F0.0
ssS'BLACHMAN JEREMY M'
p59
(dp60
g3
F2475.0
sg4
F0.0
sg5
F84208.0
sg6
I00
sg7
F831809.0
sg8
S'jeremy.blachman@enron.com'
p61
sg10
F25.0
sg11
F0.0
sg12
F0.0
sg13
F2326.0
sg14
F0.0
sg15
F14.0
sg16
F272.0
sg17
F0.35714285714285715
sg18
F0.2752777909665241
sg19
F850000.0
sg20
F954354.0
sg21
F2.0
sg22
F189041.0
sg23
F248546.0
sg24
F2014835.0
sg25
F0.0
sg26
F765313.0
ssS'SUNDE MARTIN'
p62
(dp63
g3
F2647.0
sg4
F0.0
sg5
F0.0
sg6
I00
sg7
F476451.0
sg8
S'marty.sunde@enron.com'
p64
sg10
F37.0
sg11
F0.0
sg12
F0.0
sg13
F2565.0
sg14
F0.0
sg15
F38.0
sg16
F111122.0
sg17
F0.5
sg18
F0.0
sg19
F700000.0
sg20
F698920.0
sg21
F13.0
sg22
F698920.0
sg23
F257486.0
sg24
F1545059.0
sg25
F0.0
sg26
F0.0
ssS'GIBBS DANA R'
p65
(dp66
g3
F169.0
sg4
F504610.0
sg5
F0.0
sg6
I00
sg7
F461912.0
sg8
S'dana.gibbs@enron.com'
p67
sg10
F0.0
sg11
F0.0
sg12
F0.0
sg13
F23.0
sg14
F0.0
sg15
F12.0
sg16
F0.0
sg17
F0.6428571428571429
sg18
F0.6965200607762442
sg19
F0.0
sg20
F2218275.0
sg21
F0.0
sg22
F0.0
sg23
F0.0
sg24
F966522.0
sg25
F0.0
sg26
F2218275.0
ssS'LOWRY CHARLES P'
p68
(dp69
g3
Fnan
sg4
F0.0
sg5
F0.0
sg6
I00
sg7
F0.0
sg8
Fnan
sg10
Fnan
sg11
F0.0
sg12
F-153686.0
sg13
Fnan
sg14
F0.0
sg15
Fnan
sg16
F0.0
sg17
F0.7142857142857143
sg18
F1.0
sg19
F0.0
sg20
F372205.0
sg21
Fnan
sg22
F153686.0
sg23
F0.0
sg24
F0.0
sg25
F0.0
sg26
F372205.0
ssS'COLWELL WESLEY'
p70
(dp71
g3
F1758.0
sg4
F27610.0
sg5
F16514.0
sg6
I01
sg7
F0.0
sg8
S'wes.colwell@enron.com'
p72
sg10
F240.0
sg11
F-144062.0
sg12
F0.0
sg13
F1132.0
sg14
F0.0
sg15
F40.0
sg16
F101740.0
sg17
F0.35714285714285715
sg18
F0.0
sg19
F1200000.0
sg20
F698242.0
sg21
F11.0
sg22
F698242.0
sg23
F288542.0
sg24
F1490344.0
sg25
F0.0
sg26
F0.0
ssS'MULLER MARK S'
p73
(dp74
g3
F136.0
sg4
F842924.0
sg5
F0.0
sg6
I00
sg7
F1725545.0
sg8
S's..muller@enron.com'
p75
sg10
F12.0
sg11
F-719000.0
sg12
F0.0
sg13
F114.0
sg14
F0.0
sg15
F16.0
sg16
F947.0
sg17
F0.2857142857142857
sg18
F0.24805619025030587
sg19
F1100000.0
sg20
F1416848.0
sg21
F0.0
sg22
F360528.0
sg23
F251654.0
sg24
F3202070.0
sg25
F0.0
sg26
F1056320.0
ssS'JACKSON CHARLENE R'
p76
(dp77
g3
F258.0
sg4
F0.0
sg5
F10181.0
sg6
I00
sg7
F0.0
sg8
S'charlene.jackson@enron.com'
p78
sg10
F25.0
sg11
F0.0
sg12
F0.0
sg13
F117.0
sg14
F0.0
sg15
F56.0
sg16
F2435.0
sg17
F0.42857142857142855
sg18
F0.25136335174678803
sg19
F250000.0
sg20
F725735.0
sg21
F19.0
sg22
F540672.0
sg23
F288558.0
sg24
F551174.0
sg25
F0.0
sg26
F185063.0
ssS'WESTFAHL RICHARD K'
p79
(dp80
g3
Fnan
sg4
F0.0
sg5
F51870.0
sg6
I00
sg7
F256191.0
sg8
S'dick.westfahl@enron.com'
p81
sg10
Fnan
sg11
F-10800.0
sg12
F0.0
sg13
Fnan
sg14
F0.0
sg15
Fnan
sg16
F401130.0
sg17
F0.42857142857142855
sg18
F0.0
sg19
F0.0
sg20
F384930.0
sg21
Fnan
sg22
F384930.0
sg23
F63744.0
sg24
F762135.0
sg25
F0.0
sg26
F0.0
ssS'WALTERS GARETH W'
p82
(dp83
g3
Fnan
sg4
F53625.0
sg5
F33785.0
sg6
I00
sg7
F0.0
sg8
Fnan
sg10
Fnan
sg11
F0.0
sg12
F0.0
sg13
Fnan
sg14
F0.0
sg15
Fnan
sg16
F0.0
sg17
F0.6428571428571429
sg18
F0.9217974858173509
sg19
F0.0
sg20
F1030329.0
sg21
Fnan
sg22
F0.0
sg23
F0.0
sg24
F87410.0
sg25
F0.0
sg26
F1030329.0
ssS'WALLS JR ROBERT H'
p84
(dp85
g3
F671.0
sg4
F0.0
sg5
F50936.0
sg6
I00
sg7
F540751.0
sg8
S'rob.walls@enron.com'
p86
sg10
F17.0
sg11
F0.0
sg12
F0.0
sg13
F215.0
sg14
F0.0
sg15
F146.0
sg16
F2.0
sg17
F0.35714285714285715
sg18
F0.7072928945650384
sg19
F850000.0
sg20
F5898997.0
sg21
F0.0
sg22
F1552453.0
sg23
F357091.0
sg24
F1798780.0
sg25
F0.0
sg26
F4346544.0
ssS'KITCHEN LOUISE'
p87
(dp88
g3
F8305.0
sg4
F0.0
sg5
F5774.0
sg6
I00
sg7
F0.0
sg8
S'louise.kitchen@enron.com'
p89
sg10
F251.0
sg11
F0.0
sg12
F0.0
sg13
F3669.0
sg14
F0.0
sg15
F1728.0
sg16
F93925.0
sg17
F0.42857142857142855
sg18
F0.02281470295871581
sg19
F3100000.0
sg20
F547143.0
sg21
F194.0
sg22
F466101.0
sg23
F271442.0
sg24
F3471141.0
sg25
F0.0
sg26
F81042.0
ssS'CHAN RONNIE'
p90
(dp91
g3
F0.0
sg4
F0.0
sg5
F0.0
sg6
I00
sg7
F0.0
sg8
I0
sg10
F0.0
sg11
F0.0
sg12
F0.0
sg13
F0.0
sg14
F0.0
sg15
F0.0
sg16
F0.0
sg17
F0.0
sg18
F0.0
sg19
F0.0
sg20
F0.0
sg21
F0.0
sg22
F0.0
sg23
F0.0
sg24
F0.0
sg25
F0.0
sg26
F0.0
ssS'BELFER ROBERT'
p92
(dp93
g3
Fnan
sg4
F-102500.0
sg5
F0.0
sg6
I00
sg7
F0.0
sg8
Fnan
sg10
Fnan
sg11
F-102500.0
sg12
F-44093.0
sg13
Fnan
sg14
F0.0
sg15
Fnan
sg16
F0.0
sg17
F0.5714285714285714
sg18
F0.0
sg19
F0.0
sg20
F0.0
sg21
Fnan
sg22
F44093.0
sg23
F0.0
sg24
F3285.0
sg25
F102500.0
sg26
F0.0
ssS'SHANKMAN JEFFREY A'
p94
(dp95
g3
F3221.0
sg4
F0.0
sg5
F178979.0
sg6
I00
sg7
F554422.0
sg8
S'jeffrey.shankman@enron.com'
p96
sg10
F94.0
sg11
F0.0
sg12
F0.0
sg13
F1730.0
sg14
F0.0
sg15
F2681.0
sg16
F1191.0
sg17
F0.35714285714285715
sg18
F0.32180913270544126
sg19
F2000000.0
sg20
F2072035.0
sg21
F83.0
sg22
F630137.0
sg23
F304110.0
sg24
F3038702.0
sg25
F0.0
sg26
F1441898.0
ssS'WODRASKA JOHN'
p97
(dp98
g3
Fnan
sg4
F0.0
sg5
F0.0
sg6
I00
sg7
F0.0
sg8
S'john.wodraska@enron.com'
p99
sg10
Fnan
sg11
F0.0
sg12
F0.0
sg13
Fnan
sg14
F0.0
sg15
Fnan
sg16
F189583.0
sg17
F0.8571428571428571
sg18
F0.0
sg19
F0.0
sg20
F0.0
sg21
Fnan
sg22
F0.0
sg23
F0.0
sg24
F189583.0
sg25
F0.0
sg26
F0.0
ssS'BERGSIEKER RICHARD P'
p100
(dp101
g3
F383.0
sg4
F0.0
sg5
F59175.0
sg6
I00
sg7
F180250.0
sg8
S'rick.bergsieker@enron.com'
p102
sg10
F4.0
sg11
F-485813.0
sg12
F0.0
sg13
F233.0
sg14
F0.0
sg15
F59.0
sg16
F427316.0
sg17
F0.35714285714285715
sg18
F0.0
sg19
F250000.0
sg20
F659249.0
sg21
F0.0
sg22
F659249.0
sg23
F187922.0
sg24
F618850.0
sg25
F0.0
sg26
F0.0
ssS'URQUHART JOHN A'
p103
(dp104
g3
Fnan
sg4
F0.0
sg5
F228656.0
sg6
I00
sg7
F0.0
sg8
Fnan
sg10
Fnan
sg11
F-36666.0
sg12
F0.0
sg13
Fnan
sg14
F0.0
sg15
Fnan
sg16
F0.0
sg17
F0.7142857142857143
sg18
F0.0
sg19
F0.0
sg20
F0.0
sg21
Fnan
sg22
F0.0
sg23
F0.0
sg24
F228656.0
sg25
F36666.0
sg26
F0.0
ssS'BIBI PHILIPPE A'
p105
(dp106
g3
F1607.0
sg4
F0.0
sg5
F38559.0
sg6
I00
sg7
F369721.0
sg8
S'philippe.bibi@enron.com'
p107
sg10
F23.0
sg11
F0.0
sg12
F0.0
sg13
F1336.0
sg14
F0.0
sg15
F40.0
sg16
F425688.0
sg17
F0.35714285714285715
sg18
F0.41719259266216896
sg19
F1000000.0
sg20
F1843816.0
sg21
F8.0
sg22
F378082.0
sg23
F213625.0
sg24
F2047593.0
sg25
F0.0
sg26
F1465734.0
ssS'PIRO JIM'
p108
(dp109
g3
F0.0
sg4
F0.0
sg5
F0.0
sg6
I00
sg7
F0.0
sg8
I0
sg10
F0.0
sg11
F0.0
sg12
F0.0
sg13
F0.0
sg14
F0.0
sg15
F0.0
sg16
F0.0
sg17
F0.0
sg18
F0.0
sg19
F0.0
sg20
F0.0
sg21
F0.0
sg22
F0.0
sg23
F0.0
sg24
F0.0
sg25
F0.0
sg26
F0.0
ssS'RIEKER PAULA H'
p110
(dp111
g3
F1328.0
sg4
F214678.0
sg5
F33271.0
sg6
I01
sg7
F0.0
sg8
S'paula.rieker@enron.com'
p112
sg10
F35.0
sg11
F-100000.0
sg12
F0.0
sg13
F1258.0
sg14
F0.0
sg15
F82.0
sg16
F1950.0
sg17
F0.2857142857142857
sg18
F0.5980379894511944
sg19
F700000.0
sg20
F1918887.0
sg21
F48.0
sg22
F283649.0
sg23
F249201.0
sg24
F1099100.0
sg25
F0.0
sg26
F1635238.0
ssS'WHALEY DAVID A'
p113
(dp114
g3
Fnan
sg4
F0.0
sg5
F0.0
sg6
I00
sg7
F0.0
sg8
Fnan
sg10
Fnan
sg11
F0.0
sg12
F0.0
sg13
Fnan
sg14
F0.0
sg15
Fnan
sg16
F0.0
sg17
F0.8571428571428571
sg18
F1.0
sg19
F0.0
sg20
F98718.0
sg21
Fnan
sg22
F0.0
sg23
F0.0
sg24
F0.0
sg25
F0.0
sg26
F98718.0
ssS'BECK SALLY W'
p115
(dp116
g3
F7315.0
sg4
F0.0
sg5
F37172.0
sg6
I00
sg7
F0.0
sg8
S'sally.beck@enron.com'
p117
sg10
F144.0
sg11
F0.0
sg12
F0.0
sg13
F2639.0
sg14
F0.0
sg15
F4343.0
sg16
F566.0
sg17
F0.5
sg18
F0.0
sg19
F700000.0
sg20
F126027.0
sg21
F386.0
sg22
F126027.0
sg23
F231330.0
sg24
F969068.0
sg25
F0.0
sg26
F0.0
ssS'HAUG DAVID L'
p118
(dp119
g3
F573.0
sg4
F0.0
sg5
F475.0
sg6
I00
sg7
F0.0
sg8
S'david.haug@enron.com'
p120
sg10
F4.0
sg11
F0.0
sg12
F0.0
sg13
F471.0
sg14
F0.0
sg15
F19.0
sg16
F0.0
sg17
F0.7142857142857143
sg18
F0.0
sg19
F0.0
sg20
F2217299.0
sg21
F7.0
sg22
F2217299.0
sg23
F0.0
sg24
F475.0
sg25
F0.0
sg26
F0.0
ssS'ECHOLS JOHN B'
p121
(dp122
g3
Fnan
sg4
F0.0
sg5
F21530.0
sg6
I00
sg7
F2234774.0
sg8
S'john.echols@enron.com'
p123
sg10
Fnan
sg11
F0.0
sg12
F0.0
sg13
Fnan
sg14
F0.0
sg15
Fnan
sg16
F53775.0
sg17
F0.35714285714285715
sg18
F0.18259910703930643
sg19
F200000.0
sg20
F1008941.0
sg21
Fnan
sg22
F407503.0
sg23
F182245.0
sg24
F2692324.0
sg25
F0.0
sg26
F601438.0
ssS'MENDELSOHN JOHN'
p124
(dp125
g3
Fnan
sg4
F0.0
sg5
F148.0
sg6
I00
sg7
F0.0
sg8
Fnan
sg10
Fnan
sg11
F-103750.0
sg12
F0.0
sg13
Fnan
sg14
F0.0
sg15
Fnan
sg16
F0.0
sg17
F0.7142857142857143
sg18
F0.0
sg19
F0.0
sg20
F0.0
sg21
Fnan
sg22
F0.0
sg23
F0.0
sg24
F148.0
sg25
F103750.0
sg26
F0.0
ssS'HICKERSON GARY J'
p126
(dp127
g3
F1320.0
sg4
F0.0
sg5
F98849.0
sg6
I00
sg7
F69223.0
sg8
S'gary.hickerson@enron.com'
p128
sg10
F40.0
sg11
F0.0
sg12
F0.0
sg13
F900.0
sg14
F0.0
sg15
F27.0
sg16
F1936.0
sg17
F0.42857142857142855
sg18
F0.0
sg19
F1700000.0
sg20
F441096.0
sg21
F1.0
sg22
F441096.0
sg23
F211788.0
sg24
F2081796.0
sg25
F0.0
sg26
F0.0
ssS'CLINE KENNETH W'
p129
(dp130
g3
F0.0
sg4
F0.0
sg5
F0.0
sg6
I00
sg7
F0.0
sg8
I0
sg10
F0.0
sg11
F0.0
sg12
F0.0
sg13
F0.0
sg14
F0.0
sg15
F0.0
sg16
F0.0
sg17
F0.0
sg18
F0.0
sg19
F0.0
sg20
F0.0
sg21
F0.0
sg22
F0.0
sg23
F0.0
sg24
F0.0
sg25
F0.0
sg26
F0.0
ssS'LEWIS RICHARD'
p131
(dp132
g3
F952.0
sg4
F0.0
sg5
F0.0
sg6
I00
sg7
F0.0
sg8
S'richard.lewis@enron.com'
p133
sg10
F10.0
sg11
F0.0
sg12
F0.0
sg13
F739.0
sg14
F0.0
sg15
F26.0
sg16
F0.0
sg17
F0.8571428571428571
sg18
F1.0
sg19
F0.0
sg20
F850477.0
sg21
F0.0
sg22
F0.0
sg23
F0.0
sg24
F0.0
sg25
F0.0
sg26
F850477.0
ssS'HAYES ROBERT E'
p134
(dp135
g3
F504.0
sg4
F7961.0
sg5
F0.0
sg6
I00
sg7
F0.0
sg8
S'robert.hayes@enron.com'
p136
sg10
F16.0
sg11
F0.0
sg12
F0.0
sg13
F50.0
sg14
F0.0
sg15
F12.0
sg16
F0.0
sg17
F0.7142857142857143
sg18
F0.0
sg19
F0.0
sg20
F151418.0
sg21
F0.0
sg22
F151418.0
sg23
F0.0
sg24
F7961.0
sg25
F0.0
sg26
F0.0
ssS'KOPPER MICHAEL J'
p137
(dp138
g3
Fnan
sg4
F0.0
sg5
F118134.0
sg6
I01
sg7
F602671.0
sg8
S'michael.kopper@enron.com'
p139
sg10
Fnan
sg11
F0.0
sg12
F0.0
sg13
Fnan
sg14
F0.0
sg15
Fnan
sg16
F907502.0
sg17
F0.42857142857142855
sg18
F0.0
sg19
F800000.0
sg20
F985032.0
sg21
Fnan
sg22
F985032.0
sg23
F224305.0
sg24
F2652612.0
sg25
F0.0
sg26
F0.0
ssS'LEFF DANIEL P'
p140
(dp141
g3
F2822.0
sg4
F0.0
sg5
F0.0
sg6
I00
sg7
F1387399.0
sg8
S'dan.leff@enron.com'
p142
sg10
F67.0
sg11
F0.0
sg12
F0.0
sg13
F2672.0
sg14
F0.0
sg15
F63.0
sg16
F3083.0
sg17
F0.5
sg18
F0.0
sg19
F1000000.0
sg20
F360528.0
sg21
F14.0
sg22
F360528.0
sg23
F273746.0
sg24
F2664228.0
sg25
F0.0
sg26
F0.0
ssS'LAVORATO JOHN J'
p143
(dp144
g3
F7259.0
sg4
F0.0
sg5
F49537.0
sg6
I00
sg7
F2035380.0
sg8
S'john.lavorato@enron.com'
p145
sg10
F528.0
sg11
F0.0
sg12
F0.0
sg13
F3962.0
sg14
F0.0
sg15
F2585.0
sg16
F1552.0
sg17
F0.35714285714285715
sg18
F0.28516048815914047
sg19
F8000000.0
sg20
F5167144.0
sg21
F411.0
sg22
F1008149.0
sg23
F339288.0
sg24
F10425757.0
sg25
F0.0
sg26
F4158995.0
ssS'BERBERIAN DAVID'
p146
(dp147
g3
Fnan
sg4
F0.0
sg5
F11892.0
sg6
I00
sg7
F0.0
sg8
S'david.berberian@enron.com'
p148
sg10
Fnan
sg11
F0.0
sg12
F0.0
sg13
Fnan
sg14
F0.0
sg15
Fnan
sg16
F0.0
sg17
F0.5714285714285714
sg18
F0.8766918348292109
sg19
F0.0
sg20
F2493616.0
sg21
Fnan
sg22
F869220.0
sg23
F216582.0
sg24
F228474.0
sg25
F0.0
sg26
F1624396.0
ssS'DETMERING TIMOTHY J'
p149
(dp150
g3
Fnan
sg4
F875307.0
sg5
F52255.0
sg6
I00
sg7
F415657.0
sg8
S'timothy.detmering@enron.com'
p151
sg10
Fnan
sg11
F-775241.0
sg12
F-315068.0
sg13
Fnan
sg14
F0.0
sg15
Fnan
sg16
F1105.0
sg17
F0.14285714285714285
sg18
F0.6273465187993743
sg19
F425000.0
sg20
F2027865.0
sg21
Fnan
sg22
F315068.0
sg23
F210500.0
sg24
F1204583.0
sg25
F0.0
sg26
F2027865.0
ssS'WAKEHAM JOHN'
p152
(dp153
g3
Fnan
sg4
F0.0
sg5
F103773.0
sg6
I00
sg7
F0.0
sg8
Fnan
sg10
Fnan
sg11
F0.0
sg12
F0.0
sg13
Fnan
sg14
F0.0
sg15
Fnan
sg16
F0.0
sg17
F0.7857142857142857
sg18
F0.0
sg19
F0.0
sg20
F0.0
sg21
Fnan
sg22
F0.0
sg23
F0.0
sg24
F213071.0
sg25
F109298.0
sg26
F0.0
ssS'POWERS WILLIAM'
p154
(dp155
g3
F0.0
sg4
F0.0
sg5
F0.0
sg6
I00
sg7
F0.0
sg8
I0
sg10
F0.0
sg11
F0.0
sg12
F0.0
sg13
F0.0
sg14
F0.0
sg15
F0.0
sg16
F0.0
sg17
F0.0
sg18
F0.0
sg19
F0.0
sg20
F0.0
sg21
F0.0
sg22
F0.0
sg23
F0.0
sg24
F0.0
sg25
F0.0
sg26
F0.0
ssS'GOLD JOSEPH'
p156
(dp157
g3
Fnan
sg4
F0.0
sg5
F0.0
sg6
I00
sg7
F304805.0
sg8
S'joe.gold@enron.com'
p158
sg10
Fnan
sg11
F0.0
sg12
F0.0
sg13
Fnan
sg14
F0.0
sg15
Fnan
sg16
F819288.0
sg17
F0.42857142857142855
sg18
F0.16896343238288702
sg19
F750000.0
sg20
F877611.0
sg21
Fnan
sg22
F441096.0
sg23
F272880.0
sg24
F2146973.0
sg25
F0.0
sg26
F436515.0
ssS'BANNANTINE JAMES M'
p159
(dp160
g3
F566.0
sg4
F0.0
sg5
F56301.0
sg6
I00
sg7
F0.0
sg8
S'james.bannantine@enron.com'
p161
sg10
F39.0
sg11
F-5104.0
sg12
F-560222.0
sg13
F465.0
sg14
F0.0
sg15
F29.0
sg16
F864523.0
sg17
F0.35714285714285715
sg18
F0.8153704874742914
sg19
F0.0
sg20
F5243487.0
sg21
F0.0
sg22
F1757552.0
sg23
F477.0
sg24
F916197.0
sg25
F0.0
sg26
F4046157.0
ssS'DUNCAN JOHN H'
p162
(dp163
g3
Fnan
sg4
F0.0
sg5
F0.0
sg6
I00
sg7
F0.0
sg8
Fnan
sg10
Fnan
sg11
F-25000.0
sg12
F0.0
sg13
Fnan
sg14
F0.0
sg15
Fnan
sg16
F0.0
sg17
F0.6428571428571429
sg18
F0.8275049973065742
sg19
F0.0
sg20
F371750.0
sg21
Fnan
sg22
F0.0
sg23
F0.0
sg24
F77492.0
sg25
F102492.0
sg26
F371750.0
ssS'SHAPIRO RICHARD S'
p164
(dp165
g3
F15149.0
sg4
F0.0
sg5
F137767.0
sg6
I00
sg7
F0.0
sg8
S'richard.shapiro@enron.com'
p166
sg10
F74.0
sg11
F0.0
sg12
F0.0
sg13
F4527.0
sg14
F0.0
sg15
F1215.0
sg16
F705.0
sg17
F0.42857142857142855
sg18
F0.3649828718284361
sg19
F650000.0
sg20
F987001.0
sg21
F65.0
sg22
F379164.0
sg23
F269076.0
sg24
F1057548.0
sg25
F0.0
sg26
F607837.0
ssS'SHERRIFF JOHN R'
p167
(dp168
g3
F3187.0
sg4
F0.0
sg5
F0.0
sg6
I00
sg7
F554422.0
sg8
S'john.sherriff@enron.com'
p169
sg10
F28.0
sg11
F0.0
sg12
F0.0
sg13
F2103.0
sg14
F0.0
sg15
F92.0
sg16
F1852186.0
sg17
F0.42857142857142855
sg18
F0.2974516386952665
sg19
F1500000.0
sg20
F3128982.0
sg21
F23.0
sg22
F1293424.0
sg23
F428780.0
sg24
F4335388.0
sg25
F0.0
sg26
F1835558.0
ssS'SHELBY REX'
p170
(dp171
g3
F225.0
sg4
F0.0
sg5
F22884.0
sg6
I01
sg7
F0.0
sg8
S'rex.shelby@enron.com'
p172
sg10
F13.0
sg11
F-4167.0
sg12
F0.0
sg13
F91.0
sg14
F0.0
sg15
F39.0
sg16
F1573324.0
sg17
F0.35714285714285715
sg18
F0.4477040229243545
sg19
F200000.0
sg20
F2493616.0
sg21
F14.0
sg22
F869220.0
sg23
F211844.0
sg24
F2003885.0
sg25
F0.0
sg26
F1624396.0
ssS'LEMAISTRE CHARLES'
p173
(dp174
g3
Fnan
sg4
F0.0
sg5
F0.0
sg6
I00
sg7
F0.0
sg8
Fnan
sg10
Fnan
sg11
F-25000.0
sg12
F0.0
sg13
Fnan
sg14
F0.0
sg15
Fnan
sg16
F0.0
sg17
F0.6428571428571429
sg18
F0.8251453924096169
sg19
F0.0
sg20
F412878.0
sg21
Fnan
sg22
F0.0
sg23
F0.0
sg24
F87492.0
sg25
F112492.0
sg26
F412878.0
ssS'DEFFNER JOSEPH M'
p175
(dp176
g3
F714.0
sg4
F0.0
sg5
F41626.0
sg6
I00
sg7
F335349.0
sg8
S'joseph.deffner@enron.com'
p177
sg10
F115.0
sg11
F0.0
sg12
F0.0
sg13
F552.0
sg14
F0.0
sg15
F74.0
sg16
F25553.0
sg17
F0.35714285714285715
sg18
F0.014174239229641762
sg19
F600000.0
sg20
F159211.0
sg21
F4.0
sg22
F141833.0
sg23
F206121.0
sg24
F1208649.0
sg25
F0.0
sg26
F17378.0
ssS'KISHKILL JOSEPH G'
p178
(dp179
g3
Fnan
sg4
F0.0
sg5
F116335.0
sg6
I00
sg7
F0.0
sg8
S'joe.kishkill@enron.com'
p180
sg10
Fnan
sg11
F-51042.0
sg12
F0.0
sg13
Fnan
sg14
F0.0
sg15
Fnan
sg16
F465357.0
sg17
F0.5
sg18
F0.0
sg19
F0.0
sg20
F1034346.0
sg21
Fnan
sg22
F1034346.0
sg23
F174246.0
sg24
F704896.0
sg25
F0.0
sg26
F0.0
ssS'WHALLEY LAWRENCE G'
p181
(dp182
g3
F6019.0
sg4
F0.0
sg5
F57838.0
sg6
I00
sg7
F808346.0
sg8
S'greg.whalley@enron.com'
p183
sg10
F186.0
sg11
F0.0
sg12
F0.0
sg13
F3920.0
sg14
F0.0
sg15
F556.0
sg16
F301026.0
sg17
F0.35714285714285715
sg18
F0.4124044944723558
sg19
F3000000.0
sg20
F6079137.0
sg21
F24.0
sg22
F2796177.0
sg23
F510364.0
sg24
F4677574.0
sg25
F0.0
sg26
F3282960.0
ssS'MCCARTY DANNY J'
p184
(dp185
g3
F1433.0
sg4
F0.0
sg5
F0.0
sg6
I00
sg7
F0.0
sg8
S'danny.mccarty@enron.com'
p186
sg10
F25.0
sg11
F0.0
sg12
F0.0
sg13
F508.0
sg14
F0.0
sg15
F215.0
sg16
F0.0
sg17
F0.7857142857142857
sg18
F1.0
sg19
F0.0
sg20
F758931.0
sg21
F2.0
sg22
F94556.0
sg23
F0.0
sg24
F0.0
sg25
F0.0
sg26
F664375.0
ssS'MCCONNELL MICHAEL S'
p187
(dp188
g3
F3329.0
sg4
F0.0
sg5
F81364.0
sg6
I00
sg7
F554422.0
sg8
S'mike.mcconnell@enron.com'
p189
sg10
F92.0
sg11
F0.0
sg12
F0.0
sg13
F2189.0
sg14
F0.0
sg15
F2742.0
sg16
F540.0
sg17
F0.35714285714285715
sg18
F0.43578061709162397
sg19
F1100000.0
sg20
F3101279.0
sg21
F194.0
sg22
F1478269.0
sg23
F365038.0
sg24
F2101364.0
sg25
F0.0
sg26
F1623010.0
ssS'DELAINEY DAVID W'
p190
(dp191
g3
F3093.0
sg4
F0.0
sg5
F86174.0
sg6
I01
sg7
F1294981.0
sg8
S'david.delainey@enron.com'
p192
sg10
F66.0
sg11
F0.0
sg12
F0.0
sg13
F2097.0
sg14
F0.0
sg15
F3069.0
sg16
F1661.0
sg17
F0.35714285714285715
sg18
F0.32548416756024784
sg19
F3000000.0
sg20
F3614261.0
sg21
F609.0
sg22
F1323148.0
sg23
F365163.0
sg24
F4747979.0
sg25
F0.0
sg26
F2291113.0
ssS'SULLIVAN-SHAKLOVITZ COLLEEN'
p193
(dp194
g3
Fnan
sg4
F181993.0
sg5
F0.0
sg6
I00
sg7
F554422.0
sg8
Fnan
sg10
Fnan
sg11
F0.0
sg12
F0.0
sg13
Fnan
sg14
F0.0
sg15
Fnan
sg16
F162.0
sg17
F0.42857142857142855
sg18
F0.5768544343111048
sg19
F100000.0
sg20
F1362375.0
sg21
Fnan
sg22
F0.0
sg23
F162779.0
sg24
F999356.0
sg25
F0.0
sg26
F1362375.0
ssS'WROBEL BRUCE'
p195
(dp196
g3
Fnan
sg4
F0.0
sg5
F0.0
sg6
I00
sg7
F0.0
sg8
Fnan
sg10
Fnan
sg11
F0.0
sg12
F0.0
sg13
Fnan
sg14
F0.0
sg15
Fnan
sg16
F0.0
sg17
F0.8571428571428571
sg18
F1.0
sg19
F0.0
sg20
F139130.0
sg21
Fnan
sg22
F0.0
sg23
F0.0
sg24
F0.0
sg25
F0.0
sg26
F139130.0
ssS'LINDHOLM TOD A'
p197
(dp198
g3
Fnan
sg4
F204075.0
sg5
F57727.0
sg6
I00
sg7
F175000.0
sg8
S'tod.lindholm@enron.com'
p199
sg10
Fnan
sg11
F0.0
sg12
F0.0
sg13
Fnan
sg14
F0.0
sg15
Fnan
sg16
F2630.0
sg17
F0.2857142857142857
sg18
F0.7442846507554193
sg19
F200000.0
sg20
F3064208.0
sg21
Fnan
sg22
F514847.0
sg23
F236457.0
sg24
F875889.0
sg25
F0.0
sg26
F2549361.0
ssS'MEYER JEROME J'
p200
(dp201
g3
Fnan
sg4
F0.0
sg5
F2151.0
sg6
I00
sg7
F0.0
sg8
Fnan
sg10
Fnan
sg11
F-38346.0
sg12
F0.0
sg13
Fnan
sg14
F0.0
sg15
Fnan
sg16
F0.0
sg17
F0.7142857142857143
sg18
F0.0
sg19
F0.0
sg20
F0.0
sg21
Fnan
sg22
F0.0
sg23
F0.0
sg24
F2151.0
sg25
F38346.0
sg26
F0.0
ssS'LAY KENNETH L'
p202
(dp203
g3
F4273.0
sg4
F202911.0
sg5
F99832.0
sg6
I01
sg7
F3600000.0
sg8
S'kenneth.lay@enron.com'
p204
sg10
F123.0
sg11
F-300000.0
sg12
F0.0
sg13
F2411.0
sg14
F81525000.0
sg15
F36.0
sg16
F10359729.0
sg17
F0.14285714285714285
sg18
F0.24906705858348052
sg19
F7000000.0
sg20
F49110078.0
sg21
F16.0
sg22
F14761694.0
sg23
F1072321.0
sg24
F103559793.0
sg25
F0.0
sg26
F34348384.0
ssS'BUTTS ROBERT H'
p205
(dp206
g3
Fnan
sg4
F0.0
sg5
F9410.0
sg6
I00
sg7
F175000.0
sg8
S'bob.butts@enron.com'
p207
sg10
Fnan
sg11
F-75000.0
sg12
F0.0
sg13
Fnan
sg14
F0.0
sg15
Fnan
sg16
F150656.0
sg17
F0.35714285714285715
sg18
F0.0
sg19
F750000.0
sg20
F417619.0
sg21
Fnan
sg22
F417619.0
sg23
F261516.0
sg24
F1271582.0
sg25
F0.0
sg26
F0.0
ssS'OLSON CINDY K'
p208
(dp209
g3
F1184.0
sg4
F77716.0
sg5
F63791.0
sg6
I00
sg7
F100000.0
sg8
S'cindy.olson@enron.com'
p210
sg10
F20.0
sg11
F0.0
sg12
F0.0
sg13
F856.0
sg14
F0.0
sg15
F52.0
sg16
F972.0
sg17
F0.2857142857142857
sg18
F0.5533154126406793
sg19
F750000.0
sg20
F2606763.0
sg21
F15.0
sg22
F969729.0
sg23
F329078.0
sg24
F1321557.0
sg25
F0.0
sg26
F1637034.0
ssS'MCDONALD REBECCA'
p211
(dp212
g3
F894.0
sg4
F0.0
sg5
F0.0
sg6
I00
sg7
F0.0
sg8
S'rebecca.mcdonald@enron.com'
p213
sg10
F54.0
sg11
F0.0
sg12
F0.0
sg13
F720.0
sg14
F0.0
sg15
F13.0
sg16
F0.0
sg17
F0.7857142857142857
sg18
F1.0
sg19
F0.0
sg20
F1691366.0
sg21
F1.0
sg22
F934065.0
sg23
F0.0
sg24
F0.0
sg25
F0.0
sg26
F757301.0
ssS'CUMBERLAND MICHAEL S'
p214
(dp215
g3
Fnan
sg4
F0.0
sg5
F22344.0
sg6
I00
sg7
F275000.0
sg8
Fnan
sg10
Fnan
sg11
F0.0
sg12
F0.0
sg13
Fnan
sg14
F0.0
sg15
Fnan
sg16
F713.0
sg17
F0.42857142857142855
sg18
F0.0
sg19
F325000.0
sg20
F207940.0
sg21
Fnan
sg22
F207940.0
sg23
F184899.0
sg24
F807956.0
sg25
F0.0
sg26
F0.0
ssS'GAHN ROBERT S'
p216
(dp217
g3
Fnan
sg4
F73122.0
sg5
F50080.0
sg6
I00
sg7
F0.0
sg8
Fnan
sg10
Fnan
sg11
F-1042.0
sg12
F0.0
sg13
Fnan
sg14
F0.0
sg15
Fnan
sg16
F76547.0
sg17
F0.2857142857142857
sg18
F0.08460575185348569
sg19
F509870.0
sg20
F318607.0
sg21
Fnan
sg22
F235370.0
sg23
F192008.0
sg24
F900585.0
sg25
F0.0
sg26
F83237.0
ssS'MCCLELLAN GEORGE'
p218
(dp219
g3
F1744.0
sg4
F0.0
sg5
F228763.0
sg6
I00
sg7
F0.0
sg8
S'george.mcclellan@enron.com'
p220
sg10
F52.0
sg11
F-125000.0
sg12
F0.0
sg13
F1469.0
sg14
F0.0
sg15
F49.0
sg16
F51587.0
sg17
F0.35714285714285715
sg18
F0.27759913844104284
sg19
F900000.0
sg20
F947861.0
sg21
F0.0
sg22
F441096.0
sg23
F263413.0
sg24
F1318763.0
sg25
F0.0
sg26
F506765.0
ssS'HERMANN ROBERT J'
p221
(dp222
g3
Fnan
sg4
F0.0
sg5
F48357.0
sg6
I00
sg7
F150000.0
sg8
S'robert.hermann@enron.com'
p223
sg10
Fnan
sg11
F-280000.0
sg12
F0.0
sg13
Fnan
sg14
F0.0
sg15
Fnan
sg16
F416441.0
sg17
F0.2857142857142857
sg18
F0.12626594233787958
sg19
F700000.0
sg20
F668132.0
sg21
Fnan
sg22
F480632.0
sg23
F262663.0
sg24
F1297461.0
sg25
F0.0
sg26
F187500.0
ssS'SCRIMSHAW MATTHEW'
p224
(dp225
g3
Fnan
sg4
F0.0
sg5
F0.0
sg6
I00
sg7
F0.0
sg8
S'matthew.scrimshaw@enron.com'
p226
sg10
Fnan
sg11
F0.0
sg12
F0.0
sg13
Fnan
sg14
F0.0
sg15
Fnan
sg16
F0.0
sg17
F0.8571428571428571
sg18
F1.0
sg19
F0.0
sg20
F759557.0
sg21
Fnan
sg22
F0.0
sg23
F0.0
sg24
F0.0
sg25
F0.0
sg26
F759557.0
ssS'GATHMANN WILLIAM D'
p227
(dp228
g3
Fnan
sg4
F0.0
sg5
F0.0
sg6
I00
sg7
F0.0
sg8
Fnan
sg10
Fnan
sg11
F0.0
sg12
F-72419.0
sg13
Fnan
sg14
F0.0
sg15
Fnan
sg16
F0.0
sg17
F0.7142857142857143
sg18
F1.0
sg19
F0.0
sg20
F1945360.0
sg21
Fnan
sg22
F264013.0
sg23
F0.0
sg24
F0.0
sg25
F0.0
sg26
F1753766.0
ssS'HAEDICKE MARK E'
p229
(dp230
g3
F4009.0
sg4
F2157527.0
sg5
F76169.0
sg6
I00
sg7
F983346.0
sg8
S'mark.haedicke@enron.com'
p231
sg10
F180.0
sg11
F-934484.0
sg12
F-329825.0
sg13
F1847.0
sg14
F0.0
sg15
F1941.0
sg16
F52382.0
sg17
F0.14285714285714285
sg18
F0.13625228439404943
sg19
F1150000.0
sg20
F803094.0
sg21
F61.0
sg22
F524169.0
sg23
F374125.0
sg24
F3859065.0
sg25
F0.0
sg26
F608750.0
ssS'BOWEN JR RAYMOND M'
p232
(dp233
g3
F1858.0
sg4
F0.0
sg5
F65907.0
sg6
I01
sg7
F974293.0
sg8
S'raymond.bowen@enron.com'
p234
sg10
F140.0
sg11
F-833.0
sg12
F0.0
sg13
F1593.0
sg14
F0.0
sg15
F27.0
sg16
F1621.0
sg17
F0.35714285714285715
sg18
F0.0
sg19
F1350000.0
sg20
F252055.0
sg21
F15.0
sg22
F252055.0
sg23
F278601.0
sg24
F2669589.0
sg25
F0.0
sg26
F0.0
ssS'GILLIS JOHN'
p235
(dp236
g3
Fnan
sg4
F0.0
sg5
F0.0
sg6
I00
sg7
F0.0
sg8
Fnan
sg10
Fnan
sg11
F0.0
sg12
F0.0
sg13
Fnan
sg14
F0.0
sg15
Fnan
sg16
F0.0
sg17
F0.7857142857142857
sg18
F1.0
sg19
F0.0
sg20
F85641.0
sg21
Fnan
sg22
F75838.0
sg23
F0.0
sg24
F0.0
sg25
F0.0
sg26
F9803.0
ssS'FITZGERALD JAY L'
p237
(dp238
g3
F936.0
sg4
F0.0
sg5
F23870.0
sg6
I00
sg7
F556416.0
sg8
S'jay.fitzgerald@enron.com'
p239
sg10
F1.0
sg11
F0.0
sg12
F0.0
sg13
F723.0
sg14
F0.0
sg15
F16.0
sg16
F285414.0
sg17
F0.35714285714285715
sg18
F0.3195571817297787
sg19
F350000.0
sg20
F1621236.0
sg21
F8.0
sg22
F956775.0
sg23
F199157.0
sg24
F1414857.0
sg25
F0.0
sg26
F664461.0
ssS'MORAN MICHAEL P'
p240
(dp241
g3
F672.0
sg4
F0.0
sg5
F0.0
sg6
I00
sg7
F0.0
sg8
S'michael.moran@enron.com'
p242
sg10
F0.0
sg11
F0.0
sg12
F0.0
sg13
F127.0
sg14
F0.0
sg15
F19.0
sg16
F0.0
sg17
F0.7857142857142857
sg18
F1.0
sg19
F0.0
sg20
F221141.0
sg21
F0.0
sg22
F161602.0
sg23
F0.0
sg24
F0.0
sg25
F0.0
sg26
F59539.0
ssS'REDMOND BRIAN L'
p243
(dp244
g3
F1671.0
sg4
F0.0
sg5
F14689.0
sg6
I00
sg7
F0.0
sg8
S'brian.redmond@enron.com'
p245
sg10
F204.0
sg11
F0.0
sg12
F0.0
sg13
F1063.0
sg14
F0.0
sg15
F221.0
sg16
F0.0
sg17
F0.5714285714285714
sg18
F0.9853647392162894
sg19
F0.0
sg20
F7890324.0
sg21
F49.0
sg22
F381285.0
sg23
F96840.0
sg24
F111529.0
sg25
F0.0
sg26
F7509039.0
ssS'BAZELIDES PHILIP J'
p246
(dp247
g3
Fnan
sg4
F684694.0
sg5
F0.0
sg6
I00
sg7
F93750.0
sg8
Fnan
sg10
Fnan
sg11
F0.0
sg12
F0.0
sg13
Fnan
sg14
F0.0
sg15
Fnan
sg16
F874.0
sg17
F0.5
sg18
F0.6503195208346122
sg19
F0.0
sg20
F1599641.0
sg21
Fnan
sg22
F0.0
sg23
F80818.0
sg24
F860136.0
sg25
F0.0
sg26
F1599641.0
ssS'BELDEN TIMOTHY N'
p248
(dp249
g3
F7991.0
sg4
F2144013.0
sg5
F17355.0
sg6
I01
sg7
F0.0
sg8
S'tim.belden@enron.com'
p250
sg10
F228.0
sg11
F-2334434.0
sg12
F0.0
sg13
F5521.0
sg14
F0.0
sg15
F484.0
sg16
F210698.0
sg17
F0.2857142857142857
sg18
F0.14766391221618258
sg19
F5249999.0
sg20
F1110705.0
sg21
F108.0
sg22
F157569.0
sg23
F213999.0
sg24
F5501630.0
sg25
F0.0
sg26
F953136.0
ssS'DURAN WILLIAM D'
p251
(dp252
g3
F904.0
sg4
F0.0
sg5
F25785.0
sg6
I00
sg7
F1105218.0
sg8
S'w.duran@enron.com'
p253
sg10
F106.0
sg11
F0.0
sg12
F0.0
sg13
F599.0
sg14
F0.0
sg15
F12.0
sg16
F1568.0
sg17
F0.35714285714285715
sg18
F0.4095387703476203
sg19
F750000.0
sg20
F1640910.0
sg21
F3.0
sg22
F189041.0
sg23
F210692.0
sg24
F2093263.0
sg25
F0.0
sg26
F1451869.0
ssS'THORN TERENCE H'
p254
(dp255
g3
F266.0
sg4
F16586.0
sg5
F46145.0
sg6
I00
sg7
F200000.0
sg8
S'terence.thorn@enron.com'
p256
sg10
F0.0
sg11
F0.0
sg12
F0.0
sg13
F73.0
sg14
F0.0
sg15
F41.0
sg16
F426629.0
sg17
F0.35714285714285715
sg18
F0.8300773556100388
sg19
F0.0
sg20
F4817796.0
sg21
F0.0
sg22
F365320.0
sg23
F222093.0
sg24
F911453.0
sg25
F0.0
sg26
F4452476.0
ssS'FASTOW ANDREW S'
p257
(dp258
g3
Fnan
sg4
F0.0
sg5
F55921.0
sg6
I01
sg7
F1736055.0
sg8
S'andrew.fastow@enron.com'
p259
sg10
Fnan
sg11
F-1386055.0
sg12
F0.0
sg13
Fnan
sg14
F0.0
sg15
Fnan
sg16
F277464.0
sg17
F0.35714285714285715
sg18
F0.0
sg19
F1300000.0
sg20
F1794412.0
sg21
Fnan
sg22
F1794412.0
sg23
F440698.0
sg24
F2424083.0
sg25
F0.0
sg26
F0.0
ssS'FOY JOE'
p260
(dp261
g3
F57.0
sg4
F181755.0
sg5
F0.0
sg6
I00
sg7
F0.0
sg8
S'tracy.foy@enron.com'
p262
sg10
F0.0
sg11
F0.0
sg12
F0.0
sg13
F2.0
sg14
F0.0
sg15
F13.0
sg16
F0.0
sg17
F0.7142857142857143
sg18
F0.6539245871486264
sg19
F0.0
sg20
F343434.0
sg21
F0.0
sg22
F0.0
sg23
F0.0
sg24
F181755.0
sg25
F0.0
sg26
F343434.0
ssS'CALGER CHRISTOPHER F'
p263
(dp264
g3
F2598.0
sg4
F0.0
sg5
F35818.0
sg6
I01
sg7
F375304.0
sg8
S'christopher.calger@enron.com'
p265
sg10
F199.0
sg11
F-262500.0
sg12
F0.0
sg13
F2188.0
sg14
F0.0
sg15
F144.0
sg16
F486.0
sg17
F0.35714285714285715
sg18
F0.0
sg19
F1250000.0
sg20
F126027.0
sg21
F25.0
sg22
F126027.0
sg23
F240189.0
sg24
F1639297.0
sg25
F0.0
sg26
F0.0
ssS'RICE KENNETH D'
p266
(dp267
g3
F905.0
sg4
F0.0
sg5
F46950.0
sg6
I01
sg7
F1617011.0
sg8
S'ken.rice@enron.com'
p268
sg10
F42.0
sg11
F-3504386.0
sg12
F0.0
sg13
F864.0
sg14
F0.0
sg15
F18.0
sg16
F174839.0
sg17
F0.2857142857142857
sg18
F0.9751197397930217
sg19
F1750000.0
sg20
F22542539.0
sg21
F4.0
sg22
F2748364.0
sg23
F420636.0
sg24
F505050.0
sg25
F0.0
sg26
F19794175.0
ssS'KAMINSKI WINCENTY J'
p269
(dp270
g3
F4607.0
sg4
F0.0
sg5
F83585.0
sg6
I00
sg7
F323466.0
sg8
S'vince.kaminski@enron.com'
p271
sg10
F41.0
sg11
F0.0
sg12
F0.0
sg13
F583.0
sg14
F0.0
sg15
F14368.0
sg16
F4669.0
sg17
F0.35714285714285715
sg18
F0.43886637502187853
sg19
F400000.0
sg20
F976037.0
sg21
F171.0
sg22
F126027.0
sg23
F275101.0
sg24
F1086821.0
sg25
F0.0
sg26
F850010.0
ssS'LOCKHART EUGENE E'
p272
(dp273
g3
F0.0
sg4
F0.0
sg5
F0.0
sg6
I00
sg7
F0.0
sg8
I0
sg10
F0.0
sg11
F0.0
sg12
F0.0
sg13
F0.0
sg14
F0.0
sg15
F0.0
sg16
F0.0
sg17
F0.0
sg18
F0.0
sg19
F0.0
sg20
F0.0
sg21
F0.0
sg22
F0.0
sg23
F0.0
sg24
F0.0
sg25
F0.0
sg26
F0.0
ssS'COX DAVID'
p274
(dp275
g3
F102.0
sg4
F0.0
sg5
F27861.0
sg6
I00
sg7
F0.0
sg8
S'chip.cox@enron.com'
p276
sg10
F0.0
sg11
F-41250.0
sg12
F0.0
sg13
F71.0
sg14
F0.0
sg15
F33.0
sg16
F494.0
sg17
F0.35714285714285715
sg18
F0.09643675181140397
sg19
F800000.0
sg20
F495633.0
sg21
F4.0
sg22
F378082.0
sg23
F314288.0
sg24
F1101393.0
sg25
F0.0
sg26
F117551.0
ssS'OVERDYKE JR JERE C'
p277
(dp278
g3
Fnan
sg4
F0.0
sg5
F18834.0
sg6
I00
sg7
F135836.0
sg8
S'jere.overdyke@enron.com'
p279
sg10
Fnan
sg11
F0.0
sg12
F0.0
sg13
Fnan
sg14
F0.0
sg15
Fnan
sg16
F176.0
sg17
F0.42857142857142855
sg18
F0.9547189136324373
sg19
F0.0
sg20
F7307594.0
sg21
Fnan
sg22
F2041016.0
sg23
F94941.0
sg24
F249787.0
sg25
F0.0
sg26
F5266578.0
ssS'PEREIRA PAULO V. FERRAZ'
p280
(dp281
g3
Fnan
sg4
F0.0
sg5
F27942.0
sg6
I00
sg7
F0.0
sg8
Fnan
sg10
Fnan
sg11
F-101250.0
sg12
F0.0
sg13
Fnan
sg14
F0.0
sg15
Fnan
sg16
F0.0
sg17
F0.7142857142857143
sg18
F0.0
sg19
F0.0
sg20
F0.0
sg21
Fnan
sg22
F0.0
sg23
F0.0
sg24
F27942.0
sg25
F101250.0
sg26
F0.0
ssS'STABLER FRANK'
p282
(dp283
g3
Fnan
sg4
F0.0
sg5
F16514.0
sg6
I00
sg7
F0.0
sg8
S'frank.stabler@enron.com'
p284
sg10
Fnan
sg11
F0.0
sg12
F0.0
sg13
Fnan
sg14
F0.0
sg15
Fnan
sg16
F356071.0
sg17
F0.5
sg18
F0.0
sg19
F500000.0
sg20
F511734.0
sg21
Fnan
sg22
F511734.0
sg23
F239502.0
sg24
F1112087.0
sg25
F0.0
sg26
F0.0
ssS'SKILLING JEFFREY K'
p285
(dp286
g3
F3627.0
sg4
F0.0
sg5
F29336.0
sg6
I01
sg7
F1920000.0
sg8
S'jeff.skilling@enron.com'
p287
sg10
F88.0
sg11
F0.0
sg12
F0.0
sg13
F2042.0
sg14
F0.0
sg15
F108.0
sg16
F22122.0
sg17
F0.35714285714285715
sg18
F0.6891560419688512
sg19
F5600000.0
sg20
F26093672.0
sg21
F30.0
sg22
F6843672.0
sg23
F1111258.0
sg24
F8682716.0
sg25
F0.0
sg26
F19250000.0
ssS'BLAKE JR. NORMAN P'
p288
(dp289
g3
Fnan
sg4
F0.0
sg5
F1279.0
sg6
I00
sg7
F0.0
sg8
Fnan
sg10
Fnan
sg11
F-113784.0
sg12
F0.0
sg13
Fnan
sg14
F0.0
sg15
Fnan
sg16
F0.0
sg17
F0.7142857142857143
sg18
F0.0
sg19
F0.0
sg20
F0.0
sg21
Fnan
sg22
F0.0
sg23
F0.0
sg24
F1279.0
sg25
F113784.0
sg26
F0.0
ssS'SHERRICK JEFFREY B'
p290
(dp291
g3
F613.0
sg4
F0.0
sg5
F0.0
sg6
I00
sg7
F0.0
sg8
S'jeffrey.sherrick@enron.com'
p292
sg10
F39.0
sg11
F0.0
sg12
F0.0
sg13
F583.0
sg14
F0.0
sg15
F25.0
sg16
F0.0
sg17
F0.7857142857142857
sg18
F1.0
sg19
F0.0
sg20
F1832468.0
sg21
F18.0
sg22
F405999.0
sg23
F0.0
sg24
F0.0
sg25
F0.0
sg26
F1426469.0
ssS'PRENTICE JAMES'
p293
(dp294
g3
Fnan
sg4
F564348.0
sg5
F0.0
sg6
I00
sg7
F0.0
sg8
S'james.prentice@enron.com'
p295
sg10
Fnan
sg11
F0.0
sg12
F0.0
sg13
Fnan
sg14
F0.0
sg15
Fnan
sg16
F0.0
sg17
F0.6428571428571429
sg18
F0.610949834514356
sg19
F0.0
sg20
F1095040.0
sg21
Fnan
sg22
F208809.0
sg23
F0.0
sg24
F564348.0
sg25
F0.0
sg26
F886231.0
ssS'GRAY RODNEY'
p296
(dp297
g3
Fnan
sg4
F93585.0
sg5
F0.0
sg6
I00
sg7
F365625.0
sg8
Fnan
sg10
Fnan
sg11
F0.0
sg12
F0.0
sg13
Fnan
sg14
F0.0
sg15
Fnan
sg16
F680833.0
sg17
F0.6428571428571429
sg18
F0.0
sg19
F0.0
sg20
F0.0
sg21
Fnan
sg22
F0.0
sg23
F6615.0
sg24
F1146658.0
sg25
F0.0
sg26
F0.0
ssS'PICKERING MARK R'
p298
(dp299
g3
F898.0
sg4
F0.0
sg5
F31653.0
sg6
I00
sg7
F0.0
sg8
S'mark.pickering@enron.com'
p300
sg10
F7.0
sg11
F0.0
sg12
F0.0
sg13
F728.0
sg14
F400000.0
sg15
F67.0
sg16
F0.0
sg17
F0.5
sg18
F0.02034492697924673
sg19
F300000.0
sg20
F28798.0
sg21
F0.0
sg22
F0.0
sg23
F655037.0
sg24
F1386690.0
sg25
F0.0
sg26
F28798.0
ssS'NOLES JAMES L'
p301
(dp302
g3
Fnan
sg4
F774401.0
sg5
F0.0
sg6
I00
sg7
F0.0
sg8
Fnan
sg10
Fnan
sg11
F0.0
sg12
F-94556.0
sg13
Fnan
sg14
F0.0
sg15
Fnan
sg16
F0.0
sg17
F0.6428571428571429
sg18
F0.0
sg19
F0.0
sg20
F368705.0
sg21
Fnan
sg22
F463261.0
sg23
F0.0
sg24
F774401.0
sg25
F0.0
sg26
F0.0
ssS'KEAN STEVEN J'
p303
(dp304
g3
F12754.0
sg4
F0.0
sg5
F41953.0
sg6
I00
sg7
F300000.0
sg8
S'steven.kean@enron.com'
p305
sg10
F140.0
sg11
F0.0
sg12
F0.0
sg13
F3639.0
sg14
F0.0
sg15
F6759.0
sg16
F1231.0
sg17
F0.35714285714285715
sg18
F0.5364134370763775
sg19
F1000000.0
sg20
F6153642.0
sg21
F387.0
sg22
F4131594.0
sg23
F404338.0
sg24
F1747522.0
sg25
F0.0
sg26
F2022048.0
ssS'FOWLER PEGGY'
p306
(dp307
g3
F517.0
sg4
F0.0
sg5
F0.0
sg6
I00
sg7
F0.0
sg8
S'kulvinder.fowler@enron.com'
p308
sg10
F0.0
sg11
F0.0
sg12
F0.0
sg13
F10.0
sg14
F0.0
sg15
F36.0
sg16
F0.0
sg17
F0.7857142857142857
sg18
F1.0
sg19
F0.0
sg20
F1884748.0
sg21
F0.0
sg22
F560170.0
sg23
F0.0
sg24
F0.0
sg25
F0.0
sg26
F1324578.0
ssS'WASAFF GEORGE'
p309
(dp310
g3
F400.0
sg4
F831299.0
sg5
F0.0
sg6
I00
sg7
F200000.0
sg8
S'george.wasaff@enron.com'
p311
sg10
F22.0
sg11
F-583325.0
sg12
F0.0
sg13
F337.0
sg14
F0.0
sg15
F30.0
sg16
F1425.0
sg17
F0.2857142857142857
sg18
F0.6172670947642226
sg19
F325000.0
sg20
F2056427.0
sg21
F7.0
sg22
F388167.0
sg23
F259996.0
sg24
F1034395.0
sg25
F0.0
sg26
F1668260.0
ssS'WHITE JR THOMAS E'
p312
(dp313
g3
Fnan
sg4
F0.0
sg5
F81353.0
sg6
I00
sg7
F0.0
sg8
S'thomas.white@enron.com'
p314
sg10
Fnan
sg11
F0.0
sg12
F0.0
sg13
Fnan
sg14
F0.0
sg15
Fnan
sg16
F1085463.0
sg17
F0.42857142857142855
sg18
F0.4013881874402737
sg19
F450000.0
sg20
F15144123.0
sg21
Fnan
sg22
F13847074.0
sg23
F317543.0
sg24
F1934359.0
sg25
F0.0
sg26
F1297049.0
ssS'CHRISTODOULOU DIOMEDES'
p315
(dp316
g3
Fnan
sg4
F0.0
sg5
F0.0
sg6
I00
sg7
F0.0
sg8
S'diomedes.christodoulou@enron.com'
p317
sg10
Fnan
sg11
F0.0
sg12
F0.0
sg13
Fnan
sg14
F0.0
sg15
Fnan
sg16
F0.0
sg17
F0.7857142857142857
sg18
F1.0
sg19
F0.0
sg20
F6077885.0
sg21
Fnan
sg22
F950730.0
sg23
F0.0
sg24
F0.0
sg25
F0.0
sg26
F5127155.0
ssS'ALLEN PHILLIP K'
p318
(dp319
g3
F2902.0
sg4
F2869717.0
sg5
F13868.0
sg6
I00
sg7
F304805.0
sg8
S'phillip.allen@enron.com'
p320
sg10
F47.0
sg11
F-3081055.0
sg12
F-126027.0
sg13
F1407.0
sg14
F0.0
sg15
F2195.0
sg16
F152.0
sg17
F0.14285714285714285
sg18
F0.2783305007432431
sg19
F4175000.0
sg20
F1729541.0
sg21
F65.0
sg22
F126027.0
sg23
F201955.0
sg24
F4484442.0
sg25
F0.0
sg26
F1729541.0
ssS'SHARP VICTORIA T'
p321
(dp322
g3
F3136.0
sg4
F187469.0
sg5
F116337.0
sg6
I00
sg7
F422158.0
sg8
S'vicki.sharp@enron.com'
p323
sg10
F24.0
sg11
F0.0
sg12
F0.0
sg13
F2477.0
sg14
F0.0
sg15
F136.0
sg16
F2401.0
sg17
F0.2857142857142857
sg18
F0.15131105780411544
sg19
F600000.0
sg20
F494136.0
sg21
F6.0
sg22
F213063.0
sg23
F248146.0
sg24
F1576511.0
sg25
F0.0
sg26
F281073.0
ssS'JAEDICKE ROBERT'
p324
(dp325
g3
Fnan
sg4
F0.0
sg5
F0.0
sg6
I00
sg7
F0.0
sg8
Fnan
sg10
Fnan
sg11
F-25000.0
sg12
F-44093.0
sg13
Fnan
sg14
F0.0
sg15
Fnan
sg16
F0.0
sg17
F0.5
sg18
F0.8375363724539282
sg19
F0.0
sg20
F431750.0
sg21
Fnan
sg22
F44093.0
sg23
F0.0
sg24
F83750.0
sg25
F108750.0
sg26
F431750.0
ssS'WINOKUR JR. HERBERT S'
p326
(dp327
g3
Fnan
sg4
F0.0
sg5
F1413.0
sg6
I00
sg7
F0.0
sg8
Fnan
sg10
Fnan
sg11
F-25000.0
sg12
F0.0
sg13
Fnan
sg14
F0.0
sg15
Fnan
sg16
F0.0
sg17
F0.7142857142857143
sg18
F0.0
sg19
F0.0
sg20
F0.0
sg21
Fnan
sg22
F0.0
sg23
F0.0
sg24
F84992.0
sg25
F108579.0
sg26
F0.0
ssS'BROWN MICHAEL'
p328
(dp329
g3
F1486.0
sg4
F0.0
sg5
F49288.0
sg6
I00
sg7
F0.0
sg8
S'michael.brown@enron.com'
p330
sg10
F13.0
sg11
F0.0
sg12
F0.0
sg13
F761.0
sg14
F0.0
sg15
F41.0
sg16
F0.0
sg17
F0.8571428571428571
sg18
F0.0
sg19
F0.0
sg20
F0.0
sg21
F1.0
sg22
F0.0
sg23
F0.0
sg24
F49288.0
sg25
F0.0
sg26
F0.0
ssS'BADUM JAMES P'
p331
(dp332
g3
Fnan
sg4
F178980.0
sg5
F3486.0
sg6
I00
sg7
F0.0
sg8
Fnan
sg10
Fnan
sg11
F0.0
sg12
F0.0
sg13
Fnan
sg14
F0.0
sg15
Fnan
sg16
F0.0
sg17
F0.6428571428571429
sg18
F0.5855710985888621
sg19
F0.0
sg20
F257817.0
sg21
Fnan
sg22
F0.0
sg23
F0.0
sg24
F182466.0
sg25
F0.0
sg26
F257817.0
ssS'HUGHES JAMES A'
p333
(dp334
g3
F719.0
sg4
F0.0
sg5
F0.0
sg6
I00
sg7
F0.0
sg8
S'james.hughes@enron.com'
p335
sg10
F35.0
sg11
F0.0
sg12
F0.0
sg13
F589.0
sg14
F0.0
sg15
F34.0
sg16
F0.0
sg17
F0.7857142857142857
sg18
F1.0
sg19
F0.0
sg20
F1118394.0
sg21
F5.0
sg22
F363428.0
sg23
F0.0
sg24
F0.0
sg25
F0.0
sg26
F754966.0
ssS'REYNOLDS LAWRENCE'
p336
(dp337
g3
Fnan
sg4
F51365.0
sg5
F8409.0
sg6
I00
sg7
F156250.0
sg8
Fnan
sg10
Fnan
sg11
F-200000.0
sg12
F-140264.0
sg13
Fnan
sg14
F0.0
sg15
Fnan
sg16
F202052.0
sg17
F0.14285714285714285
sg18
F0.9134001603021813
sg19
F100000.0
sg20
F4221891.0
sg21
Fnan
sg22
F201483.0
sg23
F76399.0
sg24
F394475.0
sg25
F0.0
sg26
F4160672.0
ssS'DIMICHELE RICHARD G'
p338
(dp339
g3
Fnan
sg4
F0.0
sg5
F35812.0
sg6
I00
sg7
F694862.0
sg8
S'richard.dimichele@enron.com'
p340
sg10
Fnan
sg11
F0.0
sg12
F0.0
sg13
Fnan
sg14
F0.0
sg15
Fnan
sg16
F374689.0
sg17
F0.35714285714285715
sg18
F0.77574128027276
sg19
F1000000.0
sg20
F8317782.0
sg21
Fnan
sg22
F126027.0
sg23
F262788.0
sg24
F2368151.0
sg25
F0.0
sg26
F8191755.0
ssS'BHATNAGAR SANJAY'
p341
(dp342
g3
F523.0
sg4
F0.0
sg5
F137864.0
sg6
I00
sg7
F0.0
sg8
S'sanjay.bhatnagar@enron.com'
p343
sg10
F0.0
sg11
F0.0
sg12
F-2604490.0
sg13
F463.0
sg14
F0.0
sg15
F29.0
sg16
F0.0
sg17
F0.5714285714285714
sg18
F0.991159251088581
sg19
F0.0
sg20
F15456290.0
sg21
F1.0
sg22
F2604490.0
sg23
F0.0
sg24
F137864.0
sg25
F0.0
sg26
F15456290.0
ssS'CARTER REBECCA C'
p344
(dp345
g3
F312.0
sg4
F0.0
sg5
F0.0
sg6
I00
sg7
F75000.0
sg8
S'rebecca.carter@enron.com'
p346
sg10
F29.0
sg11
F-159792.0
sg12
F-307301.0
sg13
F196.0
sg14
F0.0
sg15
F15.0
sg16
F540.0
sg17
F0.42857142857142855
sg18
F0.0
sg19
F300000.0
sg20
F0.0
sg21
F7.0
sg22
F307301.0
sg23
F261809.0
sg24
F477557.0
sg25
F0.0
sg26
F0.0
ssS'BUCHANAN HAROLD G'
p347
(dp348
g3
F1088.0
sg4
F0.0
sg5
F600.0
sg6
I00
sg7
F304805.0
sg8
S'john.buchanan@enron.com'
p349
sg10
F0.0
sg11
F0.0
sg12
F0.0
sg13
F23.0
sg14
F0.0
sg15
F125.0
sg16
F1215.0
sg17
F0.35714285714285715
sg18
F0.4390530083224252
sg19
F500000.0
sg20
F1014505.0
sg21
F0.0
sg22
F189041.0
sg23
F248017.0
sg24
F1054637.0
sg25
F0.0
sg26
F825464.0
ssS'YEAP SOON'
p350
(dp351
g3
Fnan
sg4
F0.0
sg5
F55097.0
sg6
I00
sg7
F0.0
sg8
Fnan
sg10
Fnan
sg11
F0.0
sg12
F0.0
sg13
Fnan
sg14
F0.0
sg15
Fnan
sg16
F0.0
sg17
F0.7142857142857143
sg18
F0.7777047063807468
sg19
F0.0
sg20
F192758.0
sg21
Fnan
sg22
F0.0
sg23
F0.0
sg24
F55097.0
sg25
F0.0
sg26
F192758.0
ssS'MURRAY JULIA H'
p352
(dp353
g3
F2192.0
sg4
F0.0
sg5
F57580.0
sg6
I00
sg7
F125000.0
sg8
S'julia.murray@enron.com'
p354
sg10
F11.0
sg11
F0.0
sg12
F0.0
sg13
F395.0
sg14
F0.0
sg15
F45.0
sg16
F330.0
sg17
F0.35714285714285715
sg18
F0.330244286995989
sg19
F400000.0
sg20
F597461.0
sg21
F2.0
sg22
F196983.0
sg23
F229284.0
sg24
F812194.0
sg25
F0.0
sg26
F400478.0
ssS'GARLAND C KEVIN'
p355
(dp356
g3
F209.0
sg4
F0.0
sg5
F48405.0
sg6
I00
sg7
F375304.0
sg8
S'kevin.garland@enron.com'
p357
sg10
F10.0
sg11
F0.0
sg12
F0.0
sg13
F178.0
sg14
F0.0
sg15
F44.0
sg16
F60814.0
sg17
F0.35714285714285715
sg18
F0.2888462647233074
sg19
F850000.0
sg20
F896153.0
sg21
F27.0
sg22
F259907.0
sg23
F231946.0
sg24
F1566469.0
sg25
F0.0
sg26
F636246.0
ssS'DODSON KEITH'
p358
(dp359
g3
F176.0
sg4
F0.0
sg5
F28164.0
sg6
I00
sg7
F0.0
sg8
S'keith.dodson@enron.com'
p360
sg10
F10.0
sg11
F0.0
sg12
F0.0
sg13
F114.0
sg14
F0.0
sg15
F14.0
sg16
F774.0
sg17
F0.6428571428571429
sg18
F0.0
sg19
F70000.0
sg20
F0.0
sg21
F3.0
sg22
F0.0
sg23
F221003.0
sg24
F319941.0
sg25
F0.0
sg26
F0.0
ssS'YEAGER F SCOTT'
p361
(dp362
g3
Fnan
sg4
F0.0
sg5
F53947.0
sg6
I01
sg7
F0.0
sg8
S'scott.yeager@enron.com'
p363
sg10
Fnan
sg11
F0.0
sg12
F0.0
sg13
Fnan
sg14
F0.0
sg15
Fnan
sg16
F147950.0
sg17
F0.5
sg18
F0.9584374032455508
sg19
F0.0
sg20
F11884758.0
sg21
Fnan
sg22
F3576206.0
sg23
F158403.0
sg24
F360300.0
sg25
F0.0
sg26
F8308552.0
ssS'HIRKO JOSEPH'
p364
(dp365
g3
Fnan
sg4
F10259.0
sg5
F77978.0
sg6
I01
sg7
F0.0
sg8
S'joe.hirko@enron.com'
p366
sg10
Fnan
sg11
F0.0
sg12
F0.0
sg13
Fnan
sg14
F0.0
sg15
Fnan
sg16
F2856.0
sg17
F0.5714285714285714
sg18
F0.9970479133900767
sg19
F0.0
sg20
F30766064.0
sg21
Fnan
sg22
F0.0
sg23
F0.0
sg24
F91093.0
sg25
F0.0
sg26
F30766064.0
ssS'DIETRICH JANET R'
p367
(dp368
g3
F2572.0
sg4
F0.0
sg5
F3475.0
sg6
I00
sg7
F556416.0
sg8
S'janet.dietrich@enron.com'
p369
sg10
F305.0
sg11
F0.0
sg12
F0.0
sg13
F1902.0
sg14
F0.0
sg15
F63.0
sg16
F473.0
sg17
F0.35714285714285715
sg18
F0.5235696337388189
sg19
F600000.0
sg20
F1865087.0
sg21
F14.0
sg22
F315068.0
sg23
F250100.0
sg24
F1410464.0
sg25
F0.0
sg26
F1550019.0
ssS'DERRICK JR. JAMES V'
p370
(dp371
g3
F2181.0
sg4
F0.0
sg5
F51124.0
sg6
I00
sg7
F484000.0
sg8
S'james.derrick@enron.com'
p372
sg10
F64.0
sg11
F-1284000.0
sg12
F-1787380.0
sg13
F1401.0
sg14
F0.0
sg15
F909.0
sg16
F7482.0
sg17
F0.21428571428571427
sg18
F0.9412781387064588
sg19
F800000.0
sg20
F8831913.0
sg21
F20.0
sg22
F1787380.0
sg23
F492375.0
sg24
F550981.0
sg25
F0.0
sg26
F8831913.0
ssS'FREVERT MARK A'
p373
(dp374
g3
F3275.0
sg4
F6426990.0
sg5
F86987.0
sg6
I00
sg7
F1617011.0
sg8
S'mark.frevert@enron.com'
p375
sg10
F242.0
sg11
F-3367011.0
sg12
F0.0
sg13
F2979.0
sg14
F2000000.0
sg15
F21.0
sg16
F7427621.0
sg17
F0.14285714285714285
sg18
F0.3768511128782266
sg19
F2000000.0
sg20
F14622185.0
sg21
F6.0
sg22
F4188667.0
sg23
F1060932.0
sg24
F17252530.0
sg25
F0.0
sg26
F10433518.0
ssS'PAI LOU L'
p376
(dp377
g3
Fnan
sg4
F0.0
sg5
F32047.0
sg6
I00
sg7
F0.0
sg8
S'lou.pai@enron.com'
p378
sg10
Fnan
sg11
F0.0
sg12
F0.0
sg13
Fnan
sg14
F0.0
sg15
Fnan
sg16
F1829457.0
sg17
F0.42857142857142855
sg18
F0.831054790926867
sg19
F1000000.0
sg20
F23817930.0
sg21
Fnan
sg22
F8453763.0
sg23
F261879.0
sg24
F3123383.0
sg25
F0.0
sg26
F15364167.0
ssS'BAY FRANKLIN R'
p379
(dp380
g3
Fnan
sg4
F260455.0
sg5
F129142.0
sg6
I00
sg7
F0.0
sg8
S'frank.bay@enron.com'
p381
sg10
Fnan
sg11
F-201641.0
sg12
F-82782.0
sg13
Fnan
sg14
F0.0
sg15
Fnan
sg16
F69.0
sg17
F0.2857142857142857
sg18
F0.0
sg19
F400000.0
sg20
F63014.0
sg21
Fnan
sg22
F145796.0
sg23
F239671.0
sg24
F827696.0
sg25
F0.0
sg26
F0.0
ssS'HAYSLETT RODERICK J'
p382
(dp383
g3
F0.0
sg4
F0.0
sg5
F0.0
sg6
I00
sg7
F0.0
sg8
I0
sg10
F0.0
sg11
F0.0
sg12
F0.0
sg13
F0.0
sg14
F0.0
sg15
F0.0
sg16
F0.0
sg17
F0.0
sg18
F0.0
sg19
F0.0
sg20
F0.0
sg21
F0.0
sg22
F0.0
sg23
F0.0
sg24
F0.0
sg25
F0.0
sg26
F0.0
ssS'FUGH JOHN L'
p384
(dp385
g3
Fnan
sg4
F50591.0
sg5
F0.0
sg6
I00
sg7
F0.0
sg8
Fnan
sg10
Fnan
sg11
F0.0
sg12
F0.0
sg13
Fnan
sg14
F0.0
sg15
Fnan
sg16
F0.0
sg17
F0.7142857142857143
sg18
F0.77710171873692
sg19
F0.0
sg20
F176378.0
sg21
Fnan
sg22
F0.0
sg23
F0.0
sg24
F50591.0
sg25
F0.0
sg26
F176378.0
ssS'FALLON JAMES B'
p386
(dp387
g3
F1755.0
sg4
F0.0
sg5
F95924.0
sg6
I00
sg7
F374347.0
sg8
S'jim.fallon@enron.com'
p388
sg10
F42.0
sg11
F0.0
sg12
F0.0
sg13
F1604.0
sg14
F0.0
sg15
F75.0
sg16
F401481.0
sg17
F0.35714285714285715
sg18
F0.20366884958769413
sg19
F2500000.0
sg20
F2332399.0
sg21
F37.0
sg22
F1392142.0
sg23
F304588.0
sg24
F3676340.0
sg25
F0.0
sg26
F940257.0
ssS'KOENIG MARK E'
p389
(dp390
g3
F2374.0
sg4
F0.0
sg5
F127017.0
sg6
I01
sg7
F300000.0
sg8
S'mark.koenig@enron.com'
p391
sg10
F53.0
sg11
F0.0
sg12
F0.0
sg13
F2271.0
sg14
F0.0
sg15
F61.0
sg16
F150458.0
sg17
F0.35714285714285715
sg18
F0.2973395397754385
sg19
F700000.0
sg20
F1920055.0
sg21
F15.0
sg22
F1248318.0
sg23
F309946.0
sg24
F1587421.0
sg25
F0.0
sg26
F671737.0
ssS'SAVAGE FRANK'
p392
(dp393
g3
Fnan
sg4
F0.0
sg5
F0.0
sg6
I00
sg7
F0.0
sg8
Fnan
sg10
Fnan
sg11
F-121284.0
sg12
F0.0
sg13
Fnan
sg14
F0.0
sg15
Fnan
sg16
F0.0
sg17
F0.7857142857142857
sg18
F0.0
sg19
F0.0
sg20
F0.0
sg21
Fnan
sg22
F0.0
sg23
F0.0
sg24
F3750.0
sg25
F125034.0
sg26
F0.0
ssS'IZZO LAWRENCE L'
p394
(dp395
g3
F496.0
sg4
F0.0
sg5
F28093.0
sg6
I00
sg7
F312500.0
sg8
S'larry.izzo@enron.com'
p396
sg10
F28.0
sg11
F0.0
sg12
F0.0
sg13
F437.0
sg14
F0.0
sg15
F19.0
sg16
F1553729.0
sg17
F0.42857142857142855
sg18
F0.5223867777400327
sg19
F0.0
sg20
F5819980.0
sg21
F5.0
sg22
F3654808.0
sg23
F85274.0
sg24
F1979596.0
sg25
F0.0
sg26
F2165172.0
ssS'TILNEY ELIZABETH A'
p397
(dp398
g3
F460.0
sg4
F0.0
sg5
F0.0
sg6
I00
sg7
F275000.0
sg8
S'elizabeth.tilney@enron.com'
p399
sg10
F10.0
sg11
F-575000.0
sg12
F0.0
sg13
F379.0
sg14
F0.0
sg15
F19.0
sg16
F152055.0
sg17
F0.35714285714285715
sg18
F0.5968345811760645
sg19
F300000.0
sg20
F1168042.0
sg21
F11.0
sg22
F576792.0
sg23
F247338.0
sg24
F399393.0
sg25
F0.0
sg26
F591250.0
ssS'MARTIN AMANDA K'
p400
(dp401
g3
F1522.0
sg4
F85430.0
sg5
F8211.0
sg6
I00
sg7
F5145434.0
sg8
S'a..martin@enron.com'
p402
sg10
F8.0
sg11
F0.0
sg12
F0.0
sg13
F477.0
sg14
F0.0
sg15
F230.0
sg16
F2818454.0
sg17
F0.42857142857142855
sg18
F0.19759877571768816
sg19
F0.0
sg20
F2070306.0
sg21
F0.0
sg22
F0.0
sg23
F349487.0
sg24
F8407016.0
sg25
F0.0
sg26
F2070306.0
ssS'BUY RICHARD B'
p403
(dp404
g3
F3523.0
sg4
F649584.0
sg5
F0.0
sg6
I00
sg7
F769862.0
sg8
S'rick.buy@enron.com'
p405
sg10
F156.0
sg11
F-694862.0
sg12
F0.0
sg13
F2333.0
sg14
F0.0
sg15
F1053.0
sg16
F400572.0
sg17
F0.2857142857142857
sg18
F0.5190987472734083
sg19
F900000.0
sg20
F3444470.0
sg21
F71.0
sg22
F901657.0
sg23
F330546.0
sg24
F2355702.0
sg25
F0.0
sg26
F2542813.0
ssS'GRAMM WENDY L'
p406
(dp407
g3
Fnan
sg4
F0.0
sg5
F0.0
sg6
I00
sg7
F0.0
sg8
Fnan
sg10
Fnan
sg11
F0.0
sg12
F0.0
sg13
Fnan
sg14
F0.0
sg15
Fnan
sg16
F0.0
sg17
F0.8571428571428571
sg18
F0.0
sg19
F0.0
sg20
F0.0
sg21
Fnan
sg22
F0.0
sg23
F0.0
sg24
F119292.0
sg25
F119292.0
sg26
F0.0
ssS'CAUSEY RICHARD A'
p408
(dp409
g3
F1892.0
sg4
F0.0
sg5
F30674.0
sg6
I01
sg7
F350000.0
sg8
S'richard.causey@enron.com'
p410
sg10
F58.0
sg11
F-235000.0
sg12
F0.0
sg13
F1585.0
sg14
F0.0
sg15
F49.0
sg16
F307895.0
sg17
F0.35714285714285715
sg18
F0.0
sg19
F1000000.0
sg20
F2502063.0
sg21
F12.0
sg22
F2502063.0
sg23
F415189.0
sg24
F1868758.0
sg25
F0.0
sg26
F0.0
ssS'TAYLOR MITCHELL S'
p411
(dp412
g3
F533.0
sg4
F227449.0
sg5
F0.0
sg6
I00
sg7
F0.0
sg8
S'mitchell.taylor@enron.com'
p413
sg10
F0.0
sg11
F0.0
sg12
F0.0
sg13
F300.0
sg14
F0.0
sg15
F29.0
sg16
F0.0
sg17
F0.5
sg18
F0.7443413097084569
sg19
F600000.0
sg20
F3745048.0
sg21
F0.0
sg22
F563798.0
sg23
F265214.0
sg24
F1092663.0
sg25
F0.0
sg26
F3181250.0
ssS'DONAHUE JR JEFFREY M'
p414
(dp415
g3
F865.0
sg4
F0.0
sg5
F96268.0
sg6
I00
sg7
F0.0
sg8
S'jeff.donahue@enron.com'
p416
sg10
F188.0
sg11
F-300000.0
sg12
F0.0
sg13
F772.0
sg14
F0.0
sg15
F22.0
sg16
F891.0
sg17
F0.35714285714285715
sg18
F0.46654646459724186
sg19
F800000.0
sg20
F1080988.0
sg21
F11.0
sg22
F315068.0
sg23
F278601.0
sg24
F875760.0
sg25
F0.0
sg26
F765920.0
ssS'GLISAN JR BEN F'
p417
(dp418
g3
F873.0
sg4
F0.0
sg5
F125978.0
sg6
I01
sg7
F71023.0
sg8
S'ben.glisan@enron.com'
p419
sg10
F52.0
sg11
F0.0
sg12
F0.0
sg13
F874.0
sg14
F0.0
sg15
F16.0
sg16
F200308.0
sg17
F0.35714285714285715
sg18
F0.2321817826304215
sg19
F600000.0
sg20
F778546.0
sg21
F6.0
sg22
F393818.0
sg23
F274975.0
sg24
F1272284.0
sg25
F0.0
sg26
F384728.0
ss.